; Function Attrs: nounwind uwtable
define noalias noundef ptr @png_malloc_default(ptr noalias noundef %0, i64 noundef %1) local_unnamed_addr #0 {
  %3 = icmp eq ptr %0, null
  br i1 %3, label %8, label %4

4:                                                ; preds = %2
  %5 = tail call noalias ptr @malloc(i64 noundef %1) #13
  %6 = icmp eq ptr %5, null
  br i1 %6, label %7, label %8

7:                                                ; preds = %4
  tail call void @png_error(ptr noundef nonnull %0, ptr noundef nonnull @.str.3) #14
  unreachable

8:                                                ; preds = %4, %2
  %.0 = phi ptr [ null, %2 ], [ %5, %4 ]
  ret ptr %.0
}